target datalayout = "e-m:e-p270:32:32-p271:32:32-p272:64:64-i64:64-i128:128-f80:128-n8:16:32:64-S128"
target triple = "x86_64-unknown-linux-gnu"

%"class.std::__cxx11::basic_ostringstream" = type { %"class.std::basic_ostream.base", %"class.std::__cxx11::basic_stringbuf", %"class.std::basic_ios" }
%"class.std::basic_ostream.base" = type { ptr }
%"class.std::__cxx11::basic_stringbuf" = type { %"class.std::basic_streambuf", i32, %"class.std::__cxx11::basic_string" }
%"class.std::basic_streambuf" = type { ptr, ptr, ptr, ptr, ptr, ptr, ptr, %"class.std::locale" }
%"class.std::locale" = type { ptr }
%"class.std::__cxx11::basic_string" = type { %"struct.std::__cxx11::basic_string<char>::_Alloc_hider", i64, %union.anon }
%"struct.std::__cxx11::basic_string<char>::_Alloc_hider" = type { ptr }
%union.anon = type { i64, [8 x i8] }
%"class.std::basic_ios" = type { %"class.std::ios_base", ptr, i8, i8, ptr, ptr, ptr, ptr }
%"class.std::ios_base" = type { ptr, i64, i64, i32, i32, i32, ptr, %"struct.std::ios_base::_Words", [8 x %"struct.std::ios_base::_Words"], i32, ptr, %"class.std::locale" }
%"struct.std::ios_base::_Words" = type { ptr, i64 }

@_ZN19OpenColorIO_v2_4dev12_GLOBAL__N_121GAMMA_STYLE_BASIC_FWDE = internal constant [9 x i8] c"basicFwd\00", align 1
@_ZN19OpenColorIO_v2_4dev12_GLOBAL__N_121GAMMA_STYLE_BASIC_REVE = internal constant [9 x i8] c"basicRev\00", align 1
@_ZN19OpenColorIO_v2_4dev12_GLOBAL__N_128GAMMA_STYLE_BASIC_MIRROR_FWDE = internal constant [15 x i8] c"basicMirrorFwd\00", align 1
@_ZN19OpenColorIO_v2_4dev12_GLOBAL__N_128GAMMA_STYLE_BASIC_MIRROR_REVE = internal constant [15 x i8] c"basicMirrorRev\00", align 1
@_ZN19OpenColorIO_v2_4dev12_GLOBAL__N_131GAMMA_STYLE_BASIC_PASS_THRU_FWDE = internal constant [17 x i8] c"basicPassThruFwd\00", align 16
@_ZN19OpenColorIO_v2_4dev12_GLOBAL__N_131GAMMA_STYLE_BASIC_PASS_THRU_REVE = internal constant [17 x i8] c"basicPassThruRev\00", align 16
@_ZN19OpenColorIO_v2_4dev12_GLOBAL__N_124GAMMA_STYLE_MONCURVE_FWDE = internal constant [12 x i8] c"monCurveFwd\00", align 1
@_ZN19OpenColorIO_v2_4dev12_GLOBAL__N_124GAMMA_STYLE_MONCURVE_REVE = internal constant [12 x i8] c"monCurveRev\00", align 1
@_ZN19OpenColorIO_v2_4dev12_GLOBAL__N_131GAMMA_STYLE_MONCURVE_MIRROR_FWDE = internal constant [18 x i8] c"monCurveMirrorFwd\00", align 16
@_ZN19OpenColorIO_v2_4dev12_GLOBAL__N_131GAMMA_STYLE_MONCURVE_MIRROR_REVE = internal constant [18 x i8] c"monCurveMirrorRev\00", align 16
@.str = private unnamed_addr constant [23 x i8] c"Unknown gamma style: '\00", align 1
@.str.1 = private unnamed_addr constant [3 x i8] c"'.\00", align 1
@_ZTIN19OpenColorIO_v2_4dev9ExceptionE = external constant ptr
@.str.2 = private unnamed_addr constant [21 x i8] c"Missing gamma style.\00", align 1

; Function Attrs: mustprogress uwtable
define hidden noundef i32 @_ZN19OpenColorIO_v2_4dev11GammaOpData20ConvertStringToStyleEPKc(ptr noundef %str) #4 align 2 personality ptr @__gxx_personality_v0 {
entry:
  %retval = alloca i32, align 4
  %str.addr = alloca ptr, align 8
  %os = alloca %"class.std::__cxx11::basic_ostringstream", align 8
  %exn.slot = alloca ptr, align 8
  %ehselector.slot = alloca i32, align 4
  %ref.tmp = alloca %"class.std::__cxx11::basic_string", align 8
  %cleanup.isactive = alloca i1, align 1
  store ptr %str, ptr %str.addr, align 8
  %0 = load ptr, ptr %str.addr, align 8
  %tobool = icmp ne ptr %0, null
  br i1 %tobool, label %land.lhs.true, label %if.end58

land.lhs.true:                                    ; preds = %entry
  %1 = load ptr, ptr %str.addr, align 8
  %2 = load i8, ptr %1, align 1
  %tobool1 = icmp ne i8 %2, 0
  br i1 %tobool1, label %if.then, label %if.end58

if.then:                                          ; preds = %land.lhs.true
  %3 = load ptr, ptr %str.addr, align 8
  %call = call noundef i32 @_ZN19OpenColorIO_v2_4dev8Platform10StrcasecmpEPKcS2_(ptr noundef %3, ptr noundef @_ZN19OpenColorIO_v2_4dev12_GLOBAL__N_121GAMMA_STYLE_BASIC_FWDE)
  %cmp = icmp eq i32 0, %call
  br i1 %cmp, label %if.then2, label %if.else

if.then2:                                         ; preds = %if.then
  store i32 0, ptr %retval, align 4
  br label %return

if.else:                                          ; preds = %if.then
  %4 = load ptr, ptr %str.addr, align 8
  %call3 = call noundef i32 @_ZN19OpenColorIO_v2_4dev8Platform10StrcasecmpEPKcS2_(ptr noundef %4, ptr noundef @_ZN19OpenColorIO_v2_4dev12_GLOBAL__N_121GAMMA_STYLE_BASIC_REVE)
  %cmp4 = icmp eq i32 0, %call3
  br i1 %cmp4, label %if.then5, label %if.else6

if.then5:                                         ; preds = %if.else
  store i32 1, ptr %retval, align 4
  br label %return

if.else6:                                         ; preds = %if.else
  %5 = load ptr, ptr %str.addr, align 8
  %call7 = call noundef i32 @_ZN19OpenColorIO_v2_4dev8Platform10StrcasecmpEPKcS2_(ptr noundef %5, ptr noundef @_ZN19OpenColorIO_v2_4dev12_GLOBAL__N_128GAMMA_STYLE_BASIC_MIRROR_FWDE)
  %cmp8 = icmp eq i32 0, %call7
  br i1 %cmp8, label %if.then9, label %if.else10

if.then9:                                         ; preds = %if.else6
  store i32 2, ptr %retval, align 4
  br label %return

if.else10:                                        ; preds = %if.else6
  %6 = load ptr, ptr %str.addr, align 8
  %call11 = call noundef i32 @_ZN19OpenColorIO_v2_4dev8Platform10StrcasecmpEPKcS2_(ptr noundef %6, ptr noundef @_ZN19OpenColorIO_v2_4dev12_GLOBAL__N_128GAMMA_STYLE_BASIC_MIRROR_REVE)
  %cmp12 = icmp eq i32 0, %call11
  br i1 %cmp12, label %if.then13, label %if.else14

if.then13:                                        ; preds = %if.else10
  store i32 3, ptr %retval, align 4
  br label %return

if.else14:                                        ; preds = %if.else10
  %7 = load ptr, ptr %str.addr, align 8
  %call15 = call noundef i32 @_ZN19OpenColorIO_v2_4dev8Platform10StrcasecmpEPKcS2_(ptr noundef %7, ptr noundef @_ZN19OpenColorIO_v2_4dev12_GLOBAL__N_131GAMMA_STYLE_BASIC_PASS_THRU_FWDE)
  %cmp16 = icmp eq i32 0, %call15
  br i1 %cmp16, label %if.then17, label %if.else18

if.then17:                                        ; preds = %if.else14
  store i32 4, ptr %retval, align 4
  br label %return

if.else18:                                        ; preds = %if.else14
  %8 = load ptr, ptr %str.addr, align 8
  %call19 = call noundef i32 @_ZN19OpenColorIO_v2_4dev8Platform10StrcasecmpEPKcS2_(ptr noundef %8, ptr noundef @_ZN19OpenColorIO_v2_4dev12_GLOBAL__N_131GAMMA_STYLE_BASIC_PASS_THRU_REVE)
  %cmp20 = icmp eq i32 0, %call19
  br i1 %cmp20, label %if.then21, label %if.else22

if.then21:                                        ; preds = %if.else18
  store i32 5, ptr %retval, align 4
  br label %return

if.else22:                                        ; preds = %if.else18
  %9 = load ptr, ptr %str.addr, align 8
  %call23 = call noundef i32 @_ZN19OpenColorIO_v2_4dev8Platform10StrcasecmpEPKcS2_(ptr noundef %9, ptr noundef @_ZN19OpenColorIO_v2_4dev12_GLOBAL__N_124GAMMA_STYLE_MONCURVE_FWDE)
  %cmp24 = icmp eq i32 0, %call23
  br i1 %cmp24, label %if.then25, label %if.else26

if.then25:                                        ; preds = %if.else22
  store i32 6, ptr %retval, align 4
  br label %return

if.else26:                                        ; preds = %if.else22
  %10 = load ptr, ptr %str.addr, align 8
  %call27 = call noundef i32 @_ZN19OpenColorIO_v2_4dev8Platform10StrcasecmpEPKcS2_(ptr noundef %10, ptr noundef @_ZN19OpenColorIO_v2_4dev12_GLOBAL__N_124GAMMA_STYLE_MONCURVE_REVE)
  %cmp28 = icmp eq i32 0, %call27
  br i1 %cmp28, label %if.then29, label %if.else30

if.then29:                                        ; preds = %if.else26
  store i32 7, ptr %retval, align 4
  br label %return

if.else30:                                        ; preds = %if.else26
  %11 = load ptr, ptr %str.addr, align 8
  %call31 = call noundef i32 @_ZN19OpenColorIO_v2_4dev8Platform10StrcasecmpEPKcS2_(ptr noundef %11, ptr noundef @_ZN19OpenColorIO_v2_4dev12_GLOBAL__N_131GAMMA_STYLE_MONCURVE_MIRROR_FWDE)
  %cmp32 = icmp eq i32 0, %call31
  br i1 %cmp32, label %if.then33, label %if.else34

if.then33:                                        ; preds = %if.else30
  store i32 8, ptr %retval, align 4
  br label %return

if.else34:                                        ; preds = %if.else30
  %12 = load ptr, ptr %str.addr, align 8
  %call35 = call noundef i32 @_ZN19OpenColorIO_v2_4dev8Platform10StrcasecmpEPKcS2_(ptr noundef %12, ptr noundef @_ZN19OpenColorIO_v2_4dev12_GLOBAL__N_131GAMMA_STYLE_MONCURVE_MIRROR_REVE)
  %cmp36 = icmp eq i32 0, %call35
  br i1 %cmp36, label %if.then37, label %if.end

if.then37:                                        ; preds = %if.else34
  store i32 9, ptr %retval, align 4
  br label %return

if.end:                                           ; preds = %if.else34
  br label %if.end38

if.end38:                                         ; preds = %if.end
  br label %if.end39

if.end39:                                         ; preds = %if.end38
  br label %if.end40

if.end40:                                         ; preds = %if.end39
  br label %if.end41

if.end41:                                         ; preds = %if.end40
  br label %if.end42

if.end42:                                         ; preds = %if.end41
  br label %if.end43

if.end43:                                         ; preds = %if.end42
  br label %if.end44

if.end44:                                         ; preds = %if.end43
  br label %if.end45

if.end45:                                         ; preds = %if.end44
  br label %if.end46

if.end46:                                         ; preds = %if.end45
  call void @_ZNSt7__cxx1119basic_ostringstreamIcSt11char_traitsIcESaIcEEC1Ev(ptr noundef nonnull align 8 dereferenceable(112) %os)
  %call47 = invoke noundef nonnull align 8 dereferenceable(8) ptr @_ZStlsISt11char_traitsIcEERSt13basic_ostreamIcT_ES5_PKc(ptr noundef nonnull align 8 dereferenceable(8) %os, ptr noundef @.str)
          to label %invoke.cont unwind label %lpad

invoke.cont:                                      ; preds = %if.end46
  %13 = load ptr, ptr %str.addr, align 8
  %call49 = invoke noundef nonnull align 8 dereferenceable(8) ptr @_ZStlsISt11char_traitsIcEERSt13basic_ostreamIcT_ES5_PKc(ptr noundef nonnull align 8 dereferenceable(8) %call47, ptr noundef %13)
          to label %invoke.cont48 unwind label %lpad

invoke.cont48:                                    ; preds = %invoke.cont
  %call51 = invoke noundef nonnull align 8 dereferenceable(8) ptr @_ZStlsISt11char_traitsIcEERSt13basic_ostreamIcT_ES5_PKc(ptr noundef nonnull align 8 dereferenceable(8) %call49, ptr noundef @.str.1)
          to label %invoke.cont50 unwind label %lpad

invoke.cont50:                                    ; preds = %invoke.cont48
  store i1 true, ptr %cleanup.isactive, align 1
  %exception = call ptr @__cxa_allocate_exception(i64 16) #3
  invoke void @_ZNKSt7__cxx1119basic_ostringstreamIcSt11char_traitsIcESaIcEE3strEv(ptr sret(%"class.std::__cxx11::basic_string") align 8 %ref.tmp, ptr noundef nonnull align 8 dereferenceable(112) %os)
          to label %invoke.cont53 unwind label %lpad52

invoke.cont53:                                    ; preds = %invoke.cont50
  %call54 = call noundef ptr @_ZNKSt7__cxx1112basic_stringIcSt11char_traitsIcESaIcEE5c_strEv(ptr noundef nonnull align 8 dereferenceable(32) %ref.tmp) #3
  invoke void @_ZN19OpenColorIO_v2_4dev9ExceptionC1EPKc(ptr noundef nonnull align 8 dereferenceable(16) %exception, ptr noundef %call54)
          to label %invoke.cont56 unwind label %lpad55

invoke.cont56:                                    ; preds = %invoke.cont53
  store i1 false, ptr %cleanup.isactive, align 1
  invoke void @__cxa_throw(ptr %exception, ptr @_ZTIN19OpenColorIO_v2_4dev9ExceptionE, ptr @_ZN19OpenColorIO_v2_4dev9ExceptionD1Ev) #13
          to label %unreachable unwind label %lpad55

lpad:                                             ; preds = %invoke.cont48, %invoke.cont, %if.end46
  %14 = landingpad { ptr, i32 }
          cleanup
  %15 = extractvalue { ptr, i32 } %14, 0
  store ptr %15, ptr %exn.slot, align 8
  %16 = extractvalue { ptr, i32 } %14, 1
  store i32 %16, ptr %ehselector.slot, align 4
  br label %ehcleanup57

lpad52:                                           ; preds = %invoke.cont50
  %17 = landingpad { ptr, i32 }
          cleanup
  %18 = extractvalue { ptr, i32 } %17, 0
  store ptr %18, ptr %exn.slot, align 8
  %19 = extractvalue { ptr, i32 } %17, 1
  store i32 %19, ptr %ehselector.slot, align 4
  br label %ehcleanup

lpad55:                                           ; preds = %invoke.cont56, %invoke.cont53
  %20 = landingpad { ptr, i32 }
          cleanup
  %21 = extractvalue { ptr, i32 } %20, 0
  store ptr %21, ptr %exn.slot, align 8
  %22 = extractvalue { ptr, i32 } %20, 1
  store i32 %22, ptr %ehselector.slot, align 4
  call void @_ZNSt7__cxx1112basic_stringIcSt11char_traitsIcESaIcEED1Ev(ptr noundef nonnull align 8 dereferenceable(32) %ref.tmp) #3
  br label %ehcleanup

ehcleanup:                                        ; preds = %lpad55, %lpad52
  %cleanup.is_active = load i1, ptr %cleanup.isactive, align 1
  br i1 %cleanup.is_active, label %cleanup.action, label %cleanup.done

cleanup.action:                                   ; preds = %ehcleanup
  call void @__cxa_free_exception(ptr %exception) #3
  br label %cleanup.done

cleanup.done:                                     ; preds = %cleanup.action, %ehcleanup
  br label %ehcleanup57

ehcleanup57:                                      ; preds = %cleanup.done, %lpad
  call void @_ZNSt7__cxx1119basic_ostringstreamIcSt11char_traitsIcESaIcEED1Ev(ptr noundef nonnull align 8 dereferenceable(112) %os) #3
  br label %eh.resume

if.end58:                                         ; preds = %land.lhs.true, %entry
  %exception59 = call ptr @__cxa_allocate_exception(i64 16) #3
  invoke void @_ZN19OpenColorIO_v2_4dev9ExceptionC1EPKc(ptr noundef nonnull align 8 dereferenceable(16) %exception59, ptr noundef @.str.2)
          to label %invoke.cont61 unwind label %lpad60

invoke.cont61:                                    ; preds = %if.end58
  call void @__cxa_throw(ptr %exception59, ptr @_ZTIN19OpenColorIO_v2_4dev9ExceptionE, ptr @_ZN19OpenColorIO_v2_4dev9ExceptionD1Ev) #13
  unreachable

lpad60:                                           ; preds = %if.end58
  %23 = landingpad { ptr, i32 }
          cleanup
  %24 = extractvalue { ptr, i32 } %23, 0
  store ptr %24, ptr %exn.slot, align 8
  %25 = extractvalue { ptr, i32 } %23, 1
  store i32 %25, ptr %ehselector.slot, align 4
  call void @__cxa_free_exception(ptr %exception59) #3
  br label %eh.resume

return:                                           ; preds = %if.then37, %if.then33, %if.then29, %if.then25, %if.then21, %if.then17, %if.then13, %if.then9, %if.then5, %if.then2
  %26 = load i32, ptr %retval, align 4
  ret i32 %26

eh.resume:                                        ; preds = %lpad60, %ehcleanup57
  %exn = load ptr, ptr %exn.slot, align 8
  %sel = load i32, ptr %ehselector.slot, align 4
  %lpad.val = insertvalue { ptr, i32 } poison, ptr %exn, 0
  %lpad.val63 = insertvalue { ptr, i32 } %lpad.val, i32 %sel, 1
  resume { ptr, i32 } %lpad.val63

unreachable:                                      ; preds = %invoke.cont56
  unreachable
}