; Function Attrs: mustprogress uwtable
define hidden noundef i32 @_ZN19OpenColorIO_v2_4dev11GammaOpData20ConvertStringToStyleEPKc(ptr noundef %str) local_unnamed_addr #3 align 2 personality ptr @__gxx_personality_v0 {
entry:
  %os = alloca %"class.std::__cxx11::basic_ostringstream", align 8
  %ref.tmp = alloca %"class.std::__cxx11::basic_string", align 8
  %tobool.not = icmp eq ptr %str, null
  br i1 %tobool.not, label %if.end58, label %land.lhs.true

land.lhs.true:                                    ; preds = %entry
  %0 = load i8, ptr %str, align 1
  %tobool1.not = icmp eq i8 %0, 0
  br i1 %tobool1.not, label %if.end58, label %if.then

if.then:                                          ; preds = %land.lhs.true
  %call = tail call noundef i32 @_ZN19OpenColorIO_v2_4dev8Platform10StrcasecmpEPKcS2_(ptr noundef nonnull %str, ptr noundef nonnull @_ZN19OpenColorIO_v2_4dev12_GLOBAL__N_121GAMMA_STYLE_BASIC_FWDE)
  %cmp = icmp eq i32 %call, 0
  br i1 %cmp, label %return, label %if.else

if.else:                                          ; preds = %if.then
  %call3 = tail call noundef i32 @_ZN19OpenColorIO_v2_4dev8Platform10StrcasecmpEPKcS2_(ptr noundef nonnull %str, ptr noundef nonnull @_ZN19OpenColorIO_v2_4dev12_GLOBAL__N_121GAMMA_STYLE_BASIC_REVE)
  %cmp4 = icmp eq i32 %call3, 0
  br i1 %cmp4, label %return, label %if.else6

if.else6:                                         ; preds = %if.else
  %call7 = tail call noundef i32 @_ZN19OpenColorIO_v2_4dev8Platform10StrcasecmpEPKcS2_(ptr noundef nonnull %str, ptr noundef nonnull @_ZN19OpenColorIO_v2_4dev12_GLOBAL__N_128GAMMA_STYLE_BASIC_MIRROR_FWDE)
  %cmp8 = icmp eq i32 %call7, 0
  br i1 %cmp8, label %return, label %if.else10

if.else10:                                        ; preds = %if.else6
  %call11 = tail call noundef i32 @_ZN19OpenColorIO_v2_4dev8Platform10StrcasecmpEPKcS2_(ptr noundef nonnull %str, ptr noundef nonnull @_ZN19OpenColorIO_v2_4dev12_GLOBAL__N_128GAMMA_STYLE_BASIC_MIRROR_REVE)
  %cmp12 = icmp eq i32 %call11, 0
  br i1 %cmp12, label %return, label %if.else14

if.else14:                                        ; preds = %if.else10
  %call15 = tail call noundef i32 @_ZN19OpenColorIO_v2_4dev8Platform10StrcasecmpEPKcS2_(ptr noundef nonnull %str, ptr noundef nonnull @_ZN19OpenColorIO_v2_4dev12_GLOBAL__N_131GAMMA_STYLE_BASIC_PASS_THRU_FWDE)
  %cmp16 = icmp eq i32 %call15, 0
  br i1 %cmp16, label %return, label %if.else18

if.else18:                                        ; preds = %if.else14
  %call19 = tail call noundef i32 @_ZN19OpenColorIO_v2_4dev8Platform10StrcasecmpEPKcS2_(ptr noundef nonnull %str, ptr noundef nonnull @_ZN19OpenColorIO_v2_4dev12_GLOBAL__N_131GAMMA_STYLE_BASIC_PASS_THRU_REVE)
  %cmp20 = icmp eq i32 %call19, 0
  br i1 %cmp20, label %return, label %if.else22

if.else22:                                        ; preds = %if.else18
  %call23 = tail call noundef i32 @_ZN19OpenColorIO_v2_4dev8Platform10StrcasecmpEPKcS2_(ptr noundef nonnull %str, ptr noundef nonnull @_ZN19OpenColorIO_v2_4dev12_GLOBAL__N_124GAMMA_STYLE_MONCURVE_FWDE)
  %cmp24 = icmp eq i32 %call23, 0
  br i1 %cmp24, label %return, label %if.else26

if.else26:                                        ; preds = %if.else22
  %call27 = tail call noundef i32 @_ZN19OpenColorIO_v2_4dev8Platform10StrcasecmpEPKcS2_(ptr noundef nonnull %str, ptr noundef nonnull @_ZN19OpenColorIO_v2_4dev12_GLOBAL__N_124GAMMA_STYLE_MONCURVE_REVE)
  %cmp28 = icmp eq i32 %call27, 0
  br i1 %cmp28, label %return, label %if.else30

if.else30:                                        ; preds = %if.else26
  %call31 = tail call noundef i32 @_ZN19OpenColorIO_v2_4dev8Platform10StrcasecmpEPKcS2_(ptr noundef nonnull %str, ptr noundef nonnull @_ZN19OpenColorIO_v2_4dev12_GLOBAL__N_131GAMMA_STYLE_MONCURVE_MIRROR_FWDE)
  %cmp32 = icmp eq i32 %call31, 0
  br i1 %cmp32, label %return, label %if.else34

if.else34:                                        ; preds = %if.else30
  %call35 = tail call noundef i32 @_ZN19OpenColorIO_v2_4dev8Platform10StrcasecmpEPKcS2_(ptr noundef nonnull %str, ptr noundef nonnull @_ZN19OpenColorIO_v2_4dev12_GLOBAL__N_131GAMMA_STYLE_MONCURVE_MIRROR_REVE)
  %cmp36 = icmp eq i32 %call35, 0
  br i1 %cmp36, label %return, label %if.end46

if.end46:                                         ; preds = %if.else34
  call void @_ZNSt7__cxx1119basic_ostringstreamIcSt11char_traitsIcESaIcEEC1Ev(ptr noundef nonnull align 8 dereferenceable(112) %os)
  %call47 = invoke noundef nonnull align 8 dereferenceable(8) ptr @_ZStlsISt11char_traitsIcEERSt13basic_ostreamIcT_ES5_PKc(ptr noundef nonnull align 8 dereferenceable(8) %os, ptr noundef nonnull @.str)
          to label %invoke.cont unwind label %lpad

invoke.cont:                                      ; preds = %if.end46
  %call49 = invoke noundef nonnull align 8 dereferenceable(8) ptr @_ZStlsISt11char_traitsIcEERSt13basic_ostreamIcT_ES5_PKc(ptr noundef nonnull align 8 dereferenceable(8) %call47, ptr noundef nonnull %str)
          to label %invoke.cont48 unwind label %lpad

invoke.cont48:                                    ; preds = %invoke.cont
  %call51 = invoke noundef nonnull align 8 dereferenceable(8) ptr @_ZStlsISt11char_traitsIcEERSt13basic_ostreamIcT_ES5_PKc(ptr noundef nonnull align 8 dereferenceable(8) %call49, ptr noundef nonnull @.str.1)
          to label %invoke.cont50 unwind label %lpad

invoke.cont50:                                    ; preds = %invoke.cont48
  %exception = call ptr @__cxa_allocate_exception(i64 16) #18
  invoke void @_ZNKSt7__cxx1119basic_ostringstreamIcSt11char_traitsIcESaIcEE3strEv(ptr nonnull sret(%"class.std::__cxx11::basic_string") align 8 %ref.tmp, ptr noundef nonnull align 8 dereferenceable(112) %os)
          to label %invoke.cont53 unwind label %ehcleanup.thread

invoke.cont53:                                    ; preds = %invoke.cont50
  %call54 = call noundef ptr @_ZNKSt7__cxx1112basic_stringIcSt11char_traitsIcESaIcEE5c_strEv(ptr noundef nonnull align 8 dereferenceable(32) %ref.tmp) #18
  invoke void @_ZN19OpenColorIO_v2_4dev9ExceptionC1EPKc(ptr noundef nonnull align 8 dereferenceable(16) %exception, ptr noundef %call54)
          to label %invoke.cont56 unwind label %ehcleanup.thread19

ehcleanup.thread19:                               ; preds = %invoke.cont53
  %1 = landingpad { ptr, i32 }
          cleanup
  call void @_ZNSt7__cxx1112basic_stringIcSt11char_traitsIcESaIcEED1Ev(ptr noundef nonnull align 8 dereferenceable(32) %ref.tmp) #18
  br label %cleanup.action

invoke.cont56:                                    ; preds = %invoke.cont53
  invoke void @__cxa_throw(ptr nonnull %exception, ptr nonnull @_ZTIN19OpenColorIO_v2_4dev9ExceptionE, ptr nonnull @_ZN19OpenColorIO_v2_4dev9ExceptionD1Ev) #19
          to label %unreachable unwind label %ehcleanup

lpad:                                             ; preds = %invoke.cont48, %invoke.cont, %if.end46
  %2 = landingpad { ptr, i32 }
          cleanup
  br label %ehcleanup57

ehcleanup.thread:                                 ; preds = %invoke.cont50
  %3 = landingpad { ptr, i32 }
          cleanup
  br label %cleanup.action

ehcleanup:                                        ; preds = %invoke.cont56
  %4 = landingpad { ptr, i32 }
          cleanup
  call void @_ZNSt7__cxx1112basic_stringIcSt11char_traitsIcESaIcEED1Ev(ptr noundef nonnull align 8 dereferenceable(32) %ref.tmp) #18
  br label %ehcleanup57

cleanup.action:                                   ; preds = %ehcleanup.thread19, %ehcleanup.thread
  %.pn18 = phi { ptr, i32 } [ %3, %ehcleanup.thread ], [ %1, %ehcleanup.thread19 ]
  call void @__cxa_free_exception(ptr %exception) #18
  br label %ehcleanup57

ehcleanup57:                                      ; preds = %ehcleanup, %cleanup.action, %lpad
  %.pn.pn = phi { ptr, i32 } [ %.pn18, %cleanup.action ], [ %4, %ehcleanup ], [ %2, %lpad ]
  call void @_ZNSt7__cxx1119basic_ostringstreamIcSt11char_traitsIcESaIcEED1Ev(ptr noundef nonnull align 8 dereferenceable(112) %os) #18
  br label %eh.resume

if.end58:                                         ; preds = %land.lhs.true, %entry
  %exception59 = tail call ptr @__cxa_allocate_exception(i64 16) #18
  invoke void @_ZN19OpenColorIO_v2_4dev9ExceptionC1EPKc(ptr noundef nonnull align 8 dereferenceable(16) %exception59, ptr noundef nonnull @.str.2)
          to label %invoke.cont61 unwind label %lpad60

invoke.cont61:                                    ; preds = %if.end58
  tail call void @__cxa_throw(ptr nonnull %exception59, ptr nonnull @_ZTIN19OpenColorIO_v2_4dev9ExceptionE, ptr nonnull @_ZN19OpenColorIO_v2_4dev9ExceptionD1Ev) #19
  unreachable

lpad60:                                           ; preds = %if.end58
  %5 = landingpad { ptr, i32 }
          cleanup
  tail call void @__cxa_free_exception(ptr %exception59) #18
  br label %eh.resume

return:                                           ; preds = %if.else34, %if.else30, %if.else26, %if.else22, %if.else18, %if.else14, %if.else10, %if.else6, %if.else, %if.then
  %retval.0 = phi i32 [ 0, %if.then ], [ 1, %if.else ], [ 2, %if.else6 ], [ 3, %if.else10 ], [ 4, %if.else14 ], [ 5, %if.else18 ], [ 6, %if.else22 ], [ 7, %if.else26 ], [ 8, %if.else30 ], [ 9, %if.else34 ]
  ret i32 %retval.0

eh.resume:                                        ; preds = %lpad60, %ehcleanup57
  %.pn.pn.pn = phi { ptr, i32 } [ %.pn.pn, %ehcleanup57 ], [ %5, %lpad60 ]
  resume { ptr, i32 } %.pn.pn.pn

unreachable:                                      ; preds = %invoke.cont56
  unreachable
}